; Function Attrs: cold nofree norecurse nosync nounwind optsize memory(write, argmem: none, inaccessiblemem: none) uwtable
define internal void @ff_tx_init_tab_262144_double() #6 {
  br label %2

1:                                                ; preds = %2
  store double 0.000000e+00, ptr %6, align 8, !tbaa !27
  ret void

2:                                                ; preds = %0, %2
  %.07 = phi i32 [ 0, %0 ], [ %7, %2 ]
  %.056 = phi ptr [ @ff_tx_tab_262144_double, %0 ], [ %6, %2 ]
  %3 = uitofp nneg i32 %.07 to double
  %4 = fmul nsz double %3, 0x3EF921FB54442D18
  %5 = tail call nsz double @llvm.cos.f64(double %4)
  %6 = getelementptr inbounds nuw i8, ptr %.056, i64 8
  store double %5, ptr %.056, align 8, !tbaa !27
  %7 = add nuw nsw i32 %.07, 1
  %exitcond.not = icmp eq i32 %7, 65536
  br i1 %exitcond.not, label %1, label %2, !llvm.loop !46
}